target datalayout = "e-m:e-p270:32:32-p271:32:32-p272:64:64-i64:64-i128:128-f80:128-n8:16:32:64-S128"
target triple = "x86_64-pc-linux-gnu"

%struct.pointf_s = type { double, double }
%struct.boxf = type { %struct.pointf_s, %struct.pointf_s }
%struct.Agobj_s = type { %struct.Agtag_s, ptr }
%struct.Agtag_s = type { i32, i64 }
%struct.Agraphinfo_t = type { %struct.Agrec_s, ptr, ptr, %struct.boxf, [4 x %struct.pointf_s], i8, i8, i8, i8, i32, double, double, i16, ptr, ptr, ptr, ptr, i32, ptr, ptr, ptr, ptr, i16, i16, i32, ptr, ptr, ptr, ptr, ptr, i32, ptr, ptr, %struct.nlist_t, ptr, ptr, i32, i32, i8, i8, i32, i32, i32, ptr, ptr, ptr, ptr, i8, i8, i8, i8, i8 }
%struct.Agrec_s = type { ptr, ptr }
%struct.nlist_t = type { ptr, i64 }
%struct.textlabel_t = type { ptr, ptr, ptr, i32, double, %struct.pointf_s, %struct.pointf_s, %struct.pointf_s, %union.anon.0, i8, i8, i8 }
%union.anon.0 = type { %struct.anon }
%struct.anon = type { ptr, i64 }
%struct.cinfo_t = type { %struct.boxf, ptr }
%struct.object_t = type { %struct.pointf_s, %struct.pointf_s, ptr }

@Flip = internal global i8 0, align 1

; Function Attrs: nounwind uwtable
define internal void @adjustBB(ptr dead_on_unwind noalias writable sret(%struct.boxf) align 8 %0, ptr noundef %1, ptr noundef byval(%struct.boxf) align 8 %2) #0 {
  %4 = alloca ptr, align 8
  %5 = alloca %struct.pointf_s, align 8
  store ptr %1, ptr %4, align 8, !tbaa !86
  call void @llvm.lifetime.start.p0(i64 16, ptr %5) #12
  %6 = getelementptr inbounds nuw %struct.boxf, ptr %2, i32 0, i32 0
  %7 = getelementptr inbounds nuw %struct.pointf_s, ptr %6, i32 0, i32 0
  %8 = load double, ptr %7, align 8, !tbaa !18
  %9 = load ptr, ptr %4, align 8, !tbaa !86
  %10 = getelementptr inbounds nuw %struct.object_t, ptr %9, i32 0, i32 0
  %11 = getelementptr inbounds nuw %struct.pointf_s, ptr %10, i32 0, i32 0
  %12 = load double, ptr %11, align 8, !tbaa !112
  %13 = fcmp olt double %8, %12
  br i1 %13, label %14, label %18

14:                                               ; preds = %3
  %15 = getelementptr inbounds nuw %struct.boxf, ptr %2, i32 0, i32 0
  %16 = getelementptr inbounds nuw %struct.pointf_s, ptr %15, i32 0, i32 0
  %17 = load double, ptr %16, align 8, !tbaa !18
  br label %23

18:                                               ; preds = %3
  %19 = load ptr, ptr %4, align 8, !tbaa !86
  %20 = getelementptr inbounds nuw %struct.object_t, ptr %19, i32 0, i32 0
  %21 = getelementptr inbounds nuw %struct.pointf_s, ptr %20, i32 0, i32 0
  %22 = load double, ptr %21, align 8, !tbaa !112
  br label %23

23:                                               ; preds = %18, %14
  %24 = phi double [ %17, %14 ], [ %22, %18 ]
  %25 = getelementptr inbounds nuw %struct.boxf, ptr %2, i32 0, i32 0
  %26 = getelementptr inbounds nuw %struct.pointf_s, ptr %25, i32 0, i32 0
  store double %24, ptr %26, align 8, !tbaa !18
  %27 = getelementptr inbounds nuw %struct.boxf, ptr %2, i32 0, i32 0
  %28 = getelementptr inbounds nuw %struct.pointf_s, ptr %27, i32 0, i32 1
  %29 = load double, ptr %28, align 8, !tbaa !26
  %30 = load ptr, ptr %4, align 8, !tbaa !86
  %31 = getelementptr inbounds nuw %struct.object_t, ptr %30, i32 0, i32 0
  %32 = getelementptr inbounds nuw %struct.pointf_s, ptr %31, i32 0, i32 1
  %33 = load double, ptr %32, align 8, !tbaa !113
  %34 = fcmp olt double %29, %33
  br i1 %34, label %35, label %39

35:                                               ; preds = %23
  %36 = getelementptr inbounds nuw %struct.boxf, ptr %2, i32 0, i32 0
  %37 = getelementptr inbounds nuw %struct.pointf_s, ptr %36, i32 0, i32 1
  %38 = load double, ptr %37, align 8, !tbaa !26
  br label %44

39:                                               ; preds = %23
  %40 = load ptr, ptr %4, align 8, !tbaa !86
  %41 = getelementptr inbounds nuw %struct.object_t, ptr %40, i32 0, i32 0
  %42 = getelementptr inbounds nuw %struct.pointf_s, ptr %41, i32 0, i32 1
  %43 = load double, ptr %42, align 8, !tbaa !113
  br label %44

44:                                               ; preds = %39, %35
  %45 = phi double [ %38, %35 ], [ %43, %39 ]
  %46 = getelementptr inbounds nuw %struct.boxf, ptr %2, i32 0, i32 0
  %47 = getelementptr inbounds nuw %struct.pointf_s, ptr %46, i32 0, i32 1
  store double %45, ptr %47, align 8, !tbaa !26
  %48 = load ptr, ptr %4, align 8, !tbaa !86
  %49 = getelementptr inbounds nuw %struct.object_t, ptr %48, i32 0, i32 0
  %50 = getelementptr inbounds nuw %struct.pointf_s, ptr %49, i32 0, i32 0
  %51 = load double, ptr %50, align 8, !tbaa !112
  %52 = load ptr, ptr %4, align 8, !tbaa !86
  %53 = getelementptr inbounds nuw %struct.object_t, ptr %52, i32 0, i32 1
  %54 = getelementptr inbounds nuw %struct.pointf_s, ptr %53, i32 0, i32 0
  %55 = load double, ptr %54, align 8, !tbaa !108
  %56 = fadd double %51, %55
  %57 = getelementptr inbounds nuw %struct.pointf_s, ptr %5, i32 0, i32 0
  store double %56, ptr %57, align 8, !tbaa !21
  %58 = load ptr, ptr %4, align 8, !tbaa !86
  %59 = getelementptr inbounds nuw %struct.object_t, ptr %58, i32 0, i32 0
  %60 = getelementptr inbounds nuw %struct.pointf_s, ptr %59, i32 0, i32 1
  %61 = load double, ptr %60, align 8, !tbaa !113
  %62 = load ptr, ptr %4, align 8, !tbaa !86
  %63 = getelementptr inbounds nuw %struct.object_t, ptr %62, i32 0, i32 1
  %64 = getelementptr inbounds nuw %struct.pointf_s, ptr %63, i32 0, i32 1
  %65 = load double, ptr %64, align 8, !tbaa !111
  %66 = fadd double %61, %65
  %67 = getelementptr inbounds nuw %struct.pointf_s, ptr %5, i32 0, i32 1
  store double %66, ptr %67, align 8, !tbaa !23
  %68 = getelementptr inbounds nuw %struct.boxf, ptr %2, i32 0, i32 1
  %69 = getelementptr inbounds nuw %struct.pointf_s, ptr %68, i32 0, i32 0
  %70 = load double, ptr %69, align 8, !tbaa !25
  %71 = getelementptr inbounds nuw %struct.pointf_s, ptr %5, i32 0, i32 0
  %72 = load double, ptr %71, align 8, !tbaa !21
  %73 = fcmp ogt double %70, %72
  br i1 %73, label %74, label %78

74:                                               ; preds = %44
  %75 = getelementptr inbounds nuw %struct.boxf, ptr %2, i32 0, i32 1
  %76 = getelementptr inbounds nuw %struct.pointf_s, ptr %75, i32 0, i32 0
  %77 = load double, ptr %76, align 8, !tbaa !25
  br label %81

78:                                               ; preds = %44
  %79 = getelementptr inbounds nuw %struct.pointf_s, ptr %5, i32 0, i32 0
  %80 = load double, ptr %79, align 8, !tbaa !21
  br label %81

81:                                               ; preds = %78, %74
  %82 = phi double [ %77, %74 ], [ %80, %78 ]
  %83 = getelementptr inbounds nuw %struct.boxf, ptr %2, i32 0, i32 1
  %84 = getelementptr inbounds nuw %struct.pointf_s, ptr %83, i32 0, i32 0
  store double %82, ptr %84, align 8, !tbaa !25
  %85 = getelementptr inbounds nuw %struct.boxf, ptr %2, i32 0, i32 1
  %86 = getelementptr inbounds nuw %struct.pointf_s, ptr %85, i32 0, i32 1
  %87 = load double, ptr %86, align 8, !tbaa !22
  %88 = getelementptr inbounds nuw %struct.pointf_s, ptr %5, i32 0, i32 1
  %89 = load double, ptr %88, align 8, !tbaa !23
  %90 = fcmp ogt double %87, %89
  br i1 %90, label %91, label %95

91:                                               ; preds = %81
  %92 = getelementptr inbounds nuw %struct.boxf, ptr %2, i32 0, i32 1
  %93 = getelementptr inbounds nuw %struct.pointf_s, ptr %92, i32 0, i32 1
  %94 = load double, ptr %93, align 8, !tbaa !22
  br label %98

95:                                               ; preds = %81
  %96 = getelementptr inbounds nuw %struct.pointf_s, ptr %5, i32 0, i32 1
  %97 = load double, ptr %96, align 8, !tbaa !23
  br label %98

98:                                               ; preds = %95, %91
  %99 = phi double [ %94, %91 ], [ %97, %95 ]
  %100 = getelementptr inbounds nuw %struct.boxf, ptr %2, i32 0, i32 1
  %101 = getelementptr inbounds nuw %struct.pointf_s, ptr %100, i32 0, i32 1
  store double %99, ptr %101, align 8, !tbaa !22
  call void @llvm.memcpy.p0.p0.i64(ptr align 8 %0, ptr align 8 %2, i64 32, i1 false), !tbaa.struct !15
  call void @llvm.lifetime.end.p0(i64 16, ptr %5) #12
  ret void
}

; Function Attrs: nounwind uwtable
define internal void @addLabelObj(ptr dead_on_unwind noalias writable sret(%struct.boxf) align 8 %0, ptr noundef %1, ptr noundef %2, ptr noundef byval(%struct.boxf) align 8 %3) #0 {
  %5 = alloca ptr, align 8
  %6 = alloca ptr, align 8
  store ptr %1, ptr %5, align 8, !tbaa !87
  store ptr %2, ptr %6, align 8, !tbaa !86
  %7 = load i8, ptr @Flip, align 1, !tbaa !48, !range !49, !noundef !50
  %8 = trunc i8 %7 to i1
  br i1 %8, label %9, label %24

9:                                                ; preds = %4
  %10 = load ptr, ptr %5, align 8, !tbaa !87
  %11 = getelementptr inbounds nuw %struct.textlabel_t, ptr %10, i32 0, i32 5
  %12 = getelementptr inbounds nuw %struct.pointf_s, ptr %11, i32 0, i32 1
  %13 = load double, ptr %12, align 8, !tbaa !114
  %14 = load ptr, ptr %6, align 8, !tbaa !86
  %15 = getelementptr inbounds nuw %struct.object_t, ptr %14, i32 0, i32 1
  %16 = getelementptr inbounds nuw %struct.pointf_s, ptr %15, i32 0, i32 0
  store double %13, ptr %16, align 8, !tbaa !108
  %17 = load ptr, ptr %5, align 8, !tbaa !87
  %18 = getelementptr inbounds nuw %struct.textlabel_t, ptr %17, i32 0, i32 5
  %19 = getelementptr inbounds nuw %struct.pointf_s, ptr %18, i32 0, i32 0
  %20 = load double, ptr %19, align 8, !tbaa !115
  %21 = load ptr, ptr %6, align 8, !tbaa !86
  %22 = getelementptr inbounds nuw %struct.object_t, ptr %21, i32 0, i32 1
  %23 = getelementptr inbounds nuw %struct.pointf_s, ptr %22, i32 0, i32 1
  store double %20, ptr %23, align 8, !tbaa !111
  br label %39

24:                                               ; preds = %4
  %25 = load ptr, ptr %5, align 8, !tbaa !87
  %26 = getelementptr inbounds nuw %struct.textlabel_t, ptr %25, i32 0, i32 5
  %27 = getelementptr inbounds nuw %struct.pointf_s, ptr %26, i32 0, i32 0
  %28 = load double, ptr %27, align 8, !tbaa !115
  %29 = load ptr, ptr %6, align 8, !tbaa !86
  %30 = getelementptr inbounds nuw %struct.object_t, ptr %29, i32 0, i32 1
  %31 = getelementptr inbounds nuw %struct.pointf_s, ptr %30, i32 0, i32 0
  store double %28, ptr %31, align 8, !tbaa !108
  %32 = load ptr, ptr %5, align 8, !tbaa !87
  %33 = getelementptr inbounds nuw %struct.textlabel_t, ptr %32, i32 0, i32 5
  %34 = getelementptr inbounds nuw %struct.pointf_s, ptr %33, i32 0, i32 1
  %35 = load double, ptr %34, align 8, !tbaa !114
  %36 = load ptr, ptr %6, align 8, !tbaa !86
  %37 = getelementptr inbounds nuw %struct.object_t, ptr %36, i32 0, i32 1
  %38 = getelementptr inbounds nuw %struct.pointf_s, ptr %37, i32 0, i32 1
  store double %35, ptr %38, align 8, !tbaa !111
  br label %39

39:                                               ; preds = %24, %9
  %40 = load ptr, ptr %6, align 8, !tbaa !86
  %41 = getelementptr inbounds nuw %struct.object_t, ptr %40, i32 0, i32 0
  %42 = load ptr, ptr %5, align 8, !tbaa !87
  %43 = getelementptr inbounds nuw %struct.textlabel_t, ptr %42, i32 0, i32 7
  call void @llvm.memcpy.p0.p0.i64(ptr align 8 %41, ptr align 8 %43, i64 16, i1 false), !tbaa.struct !24
  %44 = load ptr, ptr %6, align 8, !tbaa !86
  %45 = getelementptr inbounds nuw %struct.object_t, ptr %44, i32 0, i32 1
  %46 = getelementptr inbounds nuw %struct.pointf_s, ptr %45, i32 0, i32 0
  %47 = load double, ptr %46, align 8, !tbaa !108
  %48 = fdiv double %47, 2.000000e+00
  %49 = load ptr, ptr %6, align 8, !tbaa !86
  %50 = getelementptr inbounds nuw %struct.object_t, ptr %49, i32 0, i32 0
  %51 = getelementptr inbounds nuw %struct.pointf_s, ptr %50, i32 0, i32 0
  %52 = load double, ptr %51, align 8, !tbaa !112
  %53 = fsub double %52, %48
  store double %53, ptr %51, align 8, !tbaa !112
  %54 = load ptr, ptr %6, align 8, !tbaa !86
  %55 = getelementptr inbounds nuw %struct.object_t, ptr %54, i32 0, i32 1
  %56 = getelementptr inbounds nuw %struct.pointf_s, ptr %55, i32 0, i32 1
  %57 = load double, ptr %56, align 8, !tbaa !111
  %58 = fdiv double %57, 2.000000e+00
  %59 = load ptr, ptr %6, align 8, !tbaa !86
  %60 = getelementptr inbounds nuw %struct.object_t, ptr %59, i32 0, i32 0
  %61 = getelementptr inbounds nuw %struct.pointf_s, ptr %60, i32 0, i32 1
  %62 = load double, ptr %61, align 8, !tbaa !113
  %63 = fsub double %62, %58
  store double %63, ptr %61, align 8, !tbaa !113
  %64 = load ptr, ptr %6, align 8, !tbaa !86
  call void @adjustBB(ptr dead_on_unwind writable sret(%struct.boxf) align 8 %0, ptr noundef %64, ptr noundef byval(%struct.boxf) align 8 %3)
  ret void
}

; Function Attrs: nounwind uwtable
define internal void @addClusterObj(ptr dead_on_unwind noalias writable sret(%struct.cinfo_t) align 8 %0, ptr noundef %1, ptr noundef byval(%struct.cinfo_t) align 8 %2) #0 {
  %4 = alloca ptr, align 8
  %5 = alloca i32, align 4
  %6 = alloca %struct.cinfo_t, align 8
  %7 = alloca ptr, align 8
  %8 = alloca %struct.boxf, align 8
  store ptr %1, ptr %4, align 8, !tbaa !3
  call void @llvm.lifetime.start.p0(i64 4, ptr %5) #12
  store i32 1, ptr %5, align 4, !tbaa !8
  br label %9

9:                                                ; preds = %27, %3
  %10 = load i32, ptr %5, align 4, !tbaa !8
  %11 = load ptr, ptr %4, align 8, !tbaa !3
  %12 = getelementptr inbounds nuw %struct.Agobj_s, ptr %11, i32 0, i32 1
  %13 = load ptr, ptr %12, align 8, !tbaa !10
  %14 = getelementptr inbounds nuw %struct.Agraphinfo_t, ptr %13, i32 0, i32 24
  %15 = load i32, ptr %14, align 4, !tbaa !43
  %16 = icmp sle i32 %10, %15
  br i1 %16, label %17, label %30

17:                                               ; preds = %9
  call void @llvm.lifetime.start.p0(i64 40, ptr %6) #12
  %18 = load ptr, ptr %4, align 8, !tbaa !3
  %19 = getelementptr inbounds nuw %struct.Agobj_s, ptr %18, i32 0, i32 1
  %20 = load ptr, ptr %19, align 8, !tbaa !10
  %21 = getelementptr inbounds nuw %struct.Agraphinfo_t, ptr %20, i32 0, i32 25
  %22 = load ptr, ptr %21, align 8, !tbaa !44
  %23 = load i32, ptr %5, align 4, !tbaa !8
  %24 = sext i32 %23 to i64
  %25 = getelementptr inbounds ptr, ptr %22, i64 %24
  %26 = load ptr, ptr %25, align 8, !tbaa !3
  call void @addClusterObj(ptr dead_on_unwind writable sret(%struct.cinfo_t) align 8 %6, ptr noundef %26, ptr noundef byval(%struct.cinfo_t) align 8 %2)
  call void @llvm.memcpy.p0.p0.i64(ptr align 8 %2, ptr align 8 %6, i64 40, i1 false), !tbaa.struct !93
  call void @llvm.lifetime.end.p0(i64 40, ptr %6) #12
  br label %27

27:                                               ; preds = %17
  %28 = load i32, ptr %5, align 4, !tbaa !8
  %29 = add nsw i32 %28, 1
  store i32 %29, ptr %5, align 4, !tbaa !8
  br label %9, !llvm.loop !130

30:                                               ; preds = %9
  %31 = load ptr, ptr %4, align 8, !tbaa !3
  %32 = load ptr, ptr %4, align 8, !tbaa !3
  %33 = call ptr @agroot(ptr noundef %32)
  %34 = icmp ne ptr %31, %33
  br i1 %34, label %35, label %65

35:                                               ; preds = %30
  %36 = load ptr, ptr %4, align 8, !tbaa !3
  %37 = getelementptr inbounds nuw %struct.Agobj_s, ptr %36, i32 0, i32 1
  %38 = load ptr, ptr %37, align 8, !tbaa !10
  %39 = getelementptr inbounds nuw %struct.Agraphinfo_t, ptr %38, i32 0, i32 2
  %40 = load ptr, ptr %39, align 8, !tbaa !27
  %41 = icmp ne ptr %40, null
  br i1 %41, label %42, label %65

42:                                               ; preds = %35
  %43 = load ptr, ptr %4, align 8, !tbaa !3
  %44 = getelementptr inbounds nuw %struct.Agobj_s, ptr %43, i32 0, i32 1
  %45 = load ptr, ptr %44, align 8, !tbaa !10
  %46 = getelementptr inbounds nuw %struct.Agraphinfo_t, ptr %45, i32 0, i32 2
  %47 = load ptr, ptr %46, align 8, !tbaa !27
  %48 = getelementptr inbounds nuw %struct.textlabel_t, ptr %47, i32 0, i32 10
  %49 = load i8, ptr %48, align 1, !tbaa !51, !range !49, !noundef !50
  %50 = trunc i8 %49 to i1
  br i1 %50, label %51, label %65

51:                                               ; preds = %42
  call void @llvm.lifetime.start.p0(i64 8, ptr %7) #12
  %52 = getelementptr inbounds nuw %struct.cinfo_t, ptr %2, i32 0, i32 1
  %53 = load ptr, ptr %52, align 8, !tbaa !91
  store ptr %53, ptr %7, align 8, !tbaa !86
  %54 = getelementptr inbounds nuw %struct.cinfo_t, ptr %2, i32 0, i32 0
  call void @llvm.lifetime.start.p0(i64 32, ptr %8) #12
  %55 = load ptr, ptr %4, align 8, !tbaa !3
  %56 = getelementptr inbounds nuw %struct.Agobj_s, ptr %55, i32 0, i32 1
  %57 = load ptr, ptr %56, align 8, !tbaa !10
  %58 = getelementptr inbounds nuw %struct.Agraphinfo_t, ptr %57, i32 0, i32 2
  %59 = load ptr, ptr %58, align 8, !tbaa !27
  %60 = load ptr, ptr %7, align 8, !tbaa !86
  %61 = getelementptr inbounds nuw %struct.cinfo_t, ptr %2, i32 0, i32 0
  call void @addLabelObj(ptr dead_on_unwind writable sret(%struct.boxf) align 8 %8, ptr noundef %59, ptr noundef %60, ptr noundef byval(%struct.boxf) align 8 %61)
  call void @llvm.memcpy.p0.p0.i64(ptr align 8 %54, ptr align 8 %8, i64 32, i1 false), !tbaa.struct !15
  call void @llvm.lifetime.end.p0(i64 32, ptr %8) #12
  %62 = getelementptr inbounds nuw %struct.cinfo_t, ptr %2, i32 0, i32 1
  %63 = load ptr, ptr %62, align 8, !tbaa !91
  %64 = getelementptr inbounds nuw %struct.object_t, ptr %63, i32 1
  store ptr %64, ptr %62, align 8, !tbaa !91
  call void @llvm.lifetime.end.p0(i64 8, ptr %7) #12
  br label %65

65:                                               ; preds = %51, %42, %35, %30
  call void @llvm.memcpy.p0.p0.i64(ptr align 8 %0, ptr align 8 %2, i64 40, i1 false), !tbaa.struct !93
  call void @llvm.lifetime.end.p0(i64 4, ptr %5) #12
  ret void
}