; Function Attrs: nounwind uwtable
define internal fastcc void @addClusterObj(ptr dead_on_unwind noalias nonnull writable writeonly align 8 captures(none) %0, ptr noundef %1, ptr noundef byval(%struct.cinfo_t) align 8 captures(none) %2) unnamed_addr #0 {
  %4 = alloca %struct.cinfo_t, align 8
  %5 = getelementptr inbounds nuw i8, ptr %1, i64 16
  %6 = load ptr, ptr %5, align 8, !tbaa !3
  %7 = getelementptr inbounds nuw i8, ptr %6, i64 236
  %8 = load i32, ptr %7, align 4, !tbaa !36
  %.not17 = icmp slt i32 %8, 1
  br i1 %.not17, label %._crit_edge, label %.lr.ph

.lr.ph:                                           ; preds = %3, %.lr.ph
  %indvars.iv = phi i64 [ %indvars.iv.next, %.lr.ph ], [ 1, %3 ]
  %9 = phi ptr [ %14, %.lr.ph ], [ %6, %3 ]
  call void @llvm.lifetime.start.p0(i64 40, ptr nonnull %4) #18
  %10 = getelementptr inbounds nuw i8, ptr %9, i64 240
  %11 = load ptr, ptr %10, align 8, !tbaa !37
  %12 = getelementptr inbounds nuw ptr, ptr %11, i64 %indvars.iv
  %13 = load ptr, ptr %12, align 8, !tbaa !38
  call fastcc void @addClusterObj(ptr dead_on_unwind noalias writable align 8 %4, ptr noundef %13, ptr noundef nonnull byval(%struct.cinfo_t) align 8 %2)
  call void @llvm.memcpy.p0.p0.i64(ptr noundef nonnull align 8 dereferenceable(40) %2, ptr noundef nonnull align 8 dereferenceable(40) %4, i64 40, i1 false), !tbaa.struct !116
  call void @llvm.lifetime.end.p0(i64 40, ptr nonnull %4) #18
  %indvars.iv.next = add nuw nsw i64 %indvars.iv, 1
  %14 = load ptr, ptr %5, align 8, !tbaa !3
  %15 = getelementptr inbounds nuw i8, ptr %14, i64 236
  %16 = load i32, ptr %15, align 4, !tbaa !36
  %17 = sext i32 %16 to i64
  %.not.not = icmp slt i64 %indvars.iv, %17
  br i1 %.not.not, label %.lr.ph, label %._crit_edge, !llvm.loop !148

._crit_edge:                                      ; preds = %.lr.ph, %3
  %18 = tail call ptr @agroot(ptr noundef nonnull %1) #18
  %.not11 = icmp eq ptr %1, %18
  br i1 %.not11, label %54, label %19

19:                                               ; preds = %._crit_edge
  %20 = load ptr, ptr %5, align 8, !tbaa !3
  %21 = getelementptr inbounds nuw i8, ptr %20, i64 24
  %22 = load ptr, ptr %21, align 8, !tbaa !18
  %.not12 = icmp eq ptr %22, null
  br i1 %.not12, label %54, label %23

23:                                               ; preds = %19
  %24 = getelementptr inbounds nuw i8, ptr %22, i64 105
  %25 = load i8, ptr %24, align 1, !tbaa !52, !range !54, !noundef !55
  %26 = trunc nuw i8 %25 to i1
  br i1 %26, label %27, label %54

27:                                               ; preds = %23
  %28 = getelementptr inbounds nuw i8, ptr %2, i64 32
  %29 = load ptr, ptr %28, align 8, !tbaa !114
  %.sroa.013.0.copyload = load double, ptr %2, align 8
  %.sroa.414.0..sroa_idx = getelementptr inbounds nuw i8, ptr %2, i64 8
  %.sroa.414.0.copyload = load double, ptr %.sroa.414.0..sroa_idx, align 8
  %.sroa.515.0..sroa_idx = getelementptr inbounds nuw i8, ptr %2, i64 16
  %.sroa.515.0.copyload = load double, ptr %.sroa.515.0..sroa_idx, align 8
  %.sroa.616.0..sroa_idx = getelementptr inbounds nuw i8, ptr %2, i64 24
  %.sroa.616.0.copyload = load double, ptr %.sroa.616.0..sroa_idx, align 8
  %30 = load i8, ptr @Flip, align 1, !tbaa !42, !range !54, !noalias !149, !noundef !55
  %31 = trunc nuw i8 %30 to i1
  %32 = getelementptr inbounds nuw i8, ptr %22, i64 40
  %33 = getelementptr inbounds nuw i8, ptr %22, i64 48
  %..i = select i1 %31, ptr %33, ptr %32
  %.23.i = select i1 %31, ptr %32, ptr %33
  %.sink.i = load double, ptr %.23.i, align 8, !tbaa !12, !noalias !149
  %.sink22.i = load double, ptr %..i, align 8, !tbaa !12, !noalias !149
  %34 = getelementptr inbounds nuw i8, ptr %29, i64 16
  store double %.sink22.i, ptr %34, align 8, !tbaa !73, !noalias !149
  %35 = getelementptr inbounds nuw i8, ptr %29, i64 24
  store double %.sink.i, ptr %35, align 8, !tbaa !75, !noalias !149
  %36 = getelementptr inbounds nuw i8, ptr %22, i64 72
  tail call void @llvm.memcpy.p0.p0.i64(ptr noundef nonnull align 8 dereferenceable(16) %29, ptr noundef nonnull readonly align 8 dereferenceable(16) %36, i64 16, i1 false), !tbaa.struct !76, !noalias !149
  %37 = fmul double %.sink22.i, 5.000000e-01
  %38 = load double, ptr %29, align 8, !tbaa !77, !noalias !149
  %39 = fsub double %38, %37
  store double %39, ptr %29, align 8, !tbaa !77, !noalias !149
  %40 = fmul double %.sink.i, 5.000000e-01
  %41 = getelementptr inbounds nuw i8, ptr %29, i64 8
  %42 = load double, ptr %41, align 8, !tbaa !78, !noalias !149
  %43 = fsub double %42, %40
  store double %43, ptr %41, align 8, !tbaa !78, !noalias !149
  %44 = fcmp olt double %.sroa.013.0.copyload, %39
  %..i.i = select i1 %44, double %.sroa.013.0.copyload, double %39
  %45 = fcmp olt double %.sroa.414.0.copyload, %43
  %46 = select i1 %45, double %.sroa.414.0.copyload, double %43
  %47 = fadd double %.sink22.i, %39
  %48 = fadd double %.sink.i, %43
  %49 = fcmp ogt double %.sroa.515.0.copyload, %47
  %50 = select i1 %49, double %.sroa.515.0.copyload, double %47
  %51 = fcmp ogt double %.sroa.616.0.copyload, %48
  %52 = select i1 %51, double %.sroa.616.0.copyload, double %48
  store double %..i.i, ptr %2, align 8, !tbaa !12
  store double %46, ptr %.sroa.414.0..sroa_idx, align 8, !tbaa !12
  store double %50, ptr %.sroa.515.0..sroa_idx, align 8, !tbaa !12
  store double %52, ptr %.sroa.616.0..sroa_idx, align 8, !tbaa !12
  %53 = getelementptr inbounds nuw i8, ptr %29, i64 40
  store ptr %53, ptr %28, align 8, !tbaa !114
  br label %54

54:                                               ; preds = %27, %23, %19, %._crit_edge
  call void @llvm.memcpy.p0.p0.i64(ptr noundef nonnull align 8 dereferenceable(40) %0, ptr noundef nonnull align 8 dereferenceable(40) %2, i64 40, i1 false), !tbaa.struct !116
  ret void
}